; Function Attrs: mustprogress uwtable
define void @_ZN7rocksdb19ThreadStatusUpdater16UnregisterThreadEv(ptr noundef nonnull align 8 dereferenceable(216) %0) local_unnamed_addr #3 align 2 personality ptr @__gxx_personality_v0 {
  %2 = tail call align 8 ptr @llvm.threadlocal.address.p0(ptr align 8 @_ZN7rocksdb19ThreadStatusUpdater19thread_status_data_E)
  %3 = load ptr, ptr %2, align 8, !tbaa !14
  %.not = icmp eq ptr %3, null
  br i1 %.not, label %18, label %4

4:                                                ; preds = %1
  %5 = getelementptr inbounds nuw i8, ptr %0, i64 8
  %6 = tail call noundef i32 @pthread_mutex_lock(ptr noundef nonnull align 8 dereferenceable(40) %5) #26
  %.not.i.i = icmp eq i32 %6, 0
  br i1 %.not.i.i, label %_ZNSt10lock_guardISt5mutexEC2ERS0_.exit, label %7

7:                                                ; preds = %4
  tail call void @_ZSt20__throw_system_errori(i32 noundef %6) #27
  unreachable

_ZNSt10lock_guardISt5mutexEC2ERS0_.exit:          ; preds = %4
  %8 = getelementptr inbounds nuw i8, ptr %0, i64 48
  %9 = invoke noundef i64 @_ZNSt10_HashtableIPN7rocksdb16ThreadStatusDataES2_SaIS2_ENSt8__detail9_IdentityESt8equal_toIS2_ESt4hashIS2_ENS4_18_Mod_range_hashingENS4_20_Default_ranged_hashENS4_20_Prime_rehash_policyENS4_17_Hashtable_traitsILb0ELb1ELb1EEEE8_M_eraseESt17integral_constantIbLb1EERKS2_(ptr noundef nonnull align 8 dereferenceable(56) %8, ptr noundef nonnull align 8 dereferenceable(8) %2)
          to label %_ZNSt13unordered_setIPN7rocksdb16ThreadStatusDataESt4hashIS2_ESt8equal_toIS2_ESaIS2_EE5eraseERKS2_.exit unwind label %15

_ZNSt13unordered_setIPN7rocksdb16ThreadStatusDataESt4hashIS2_ESt8equal_toIS2_ESaIS2_EE5eraseERKS2_.exit: ; preds = %_ZNSt10lock_guardISt5mutexEC2ERS0_.exit
  %10 = load ptr, ptr %2, align 8, !tbaa !14
  %11 = icmp eq ptr %10, null
  br i1 %11, label %13, label %12

12:                                               ; preds = %_ZNSt13unordered_setIPN7rocksdb16ThreadStatusDataESt4hashIS2_ESt8equal_toIS2_ESaIS2_EE5eraseERKS2_.exit
  tail call void @_ZdlPvm(ptr noundef nonnull %10, i64 noundef 112) #24
  br label %13

13:                                               ; preds = %12, %_ZNSt13unordered_setIPN7rocksdb16ThreadStatusDataESt4hashIS2_ESt8equal_toIS2_ESaIS2_EE5eraseERKS2_.exit
  store ptr null, ptr %2, align 8, !tbaa !14
  %14 = tail call noundef i32 @pthread_mutex_unlock(ptr noundef nonnull align 8 dereferenceable(40) %5) #26
  br label %18

15:                                               ; preds = %_ZNSt10lock_guardISt5mutexEC2ERS0_.exit
  %16 = landingpad { ptr, i32 }
          cleanup
  %17 = tail call noundef i32 @pthread_mutex_unlock(ptr noundef nonnull align 8 dereferenceable(40) %5) #26
  resume { ptr, i32 } %16

18:                                               ; preds = %13, %1
  ret void
}